; Function Attrs: mustprogress nounwind uwtable
define dso_local void @_ZN16cmCursesMainForm12ResetOutputsEv(ptr noundef nonnull align 8 dereferenceable(297) %0) local_unnamed_addr #4 align 2 personality ptr @__gxx_personality_v0 {
  %2 = getelementptr inbounds i8, ptr %0, i64 40
  %3 = load ptr, ptr %2, align 8
  store ptr null, ptr %2, align 8
  %.not.i.i = icmp eq ptr %3, null
  br i1 %.not.i.i, label %_ZNSt10unique_ptrI23cmCursesLongMessageFormSt14default_deleteIS0_EE5resetEPS0_.exit, label %_ZNKSt14default_deleteI23cmCursesLongMessageFormEclEPS0_.exit.i.i

_ZNKSt14default_deleteI23cmCursesLongMessageFormEclEPS0_.exit.i.i: ; preds = %1
  %4 = load ptr, ptr %3, align 8
  %5 = getelementptr inbounds i8, ptr %4, i64 8
  %6 = load ptr, ptr %5, align 8
  tail call void %6(ptr noundef nonnull align 8 dereferenceable(104) %3) #19
  br label %_ZNSt10unique_ptrI23cmCursesLongMessageFormSt14default_deleteIS0_EE5resetEPS0_.exit

_ZNSt10unique_ptrI23cmCursesLongMessageFormSt14default_deleteIS0_EE5resetEPS0_.exit: ; preds = %1, %_ZNKSt14default_deleteI23cmCursesLongMessageFormEclEPS0_.exit.i.i
  %7 = getelementptr inbounds i8, ptr %0, i64 48
  %8 = load ptr, ptr %7, align 8
  %9 = getelementptr inbounds i8, ptr %0, i64 56
  %10 = load ptr, ptr %9, align 8
  %.not.i.i1 = icmp eq ptr %10, %8
  br i1 %.not.i.i1, label %_ZNSt6vectorINSt7__cxx1112basic_stringIcSt11char_traitsIcESaIcEEESaIS5_EE5clearEv.exit, label %.lr.ph.i.i.i.i.i

.lr.ph.i.i.i.i.i:                                 ; preds = %_ZNSt10unique_ptrI23cmCursesLongMessageFormSt14default_deleteIS0_EE5resetEPS0_.exit, %.lr.ph.i.i.i.i.i
  %.05.i.i.i.i.i = phi ptr [ %11, %.lr.ph.i.i.i.i.i ], [ %8, %_ZNSt10unique_ptrI23cmCursesLongMessageFormSt14default_deleteIS0_EE5resetEPS0_.exit ]
  tail call void @_ZNSt7__cxx1112basic_stringIcSt11char_traitsIcESaIcEED1Ev(ptr noundef nonnull align 8 dereferenceable(32) %.05.i.i.i.i.i) #19
  %11 = getelementptr inbounds i8, ptr %.05.i.i.i.i.i, i64 32
  %.not.i.i.i.i.i = icmp eq ptr %11, %10
  br i1 %.not.i.i.i.i.i, label %_ZSt8_DestroyIPNSt7__cxx1112basic_stringIcSt11char_traitsIcESaIcEEES5_EvT_S7_RSaIT0_E.exit.i.i, label %.lr.ph.i.i.i.i.i, !llvm.loop !18

_ZSt8_DestroyIPNSt7__cxx1112basic_stringIcSt11char_traitsIcESaIcEEES5_EvT_S7_RSaIT0_E.exit.i.i: ; preds = %.lr.ph.i.i.i.i.i
  store ptr %8, ptr %9, align 8
  br label %_ZNSt6vectorINSt7__cxx1112basic_stringIcSt11char_traitsIcESaIcEEESaIS5_EE5clearEv.exit

_ZNSt6vectorINSt7__cxx1112basic_stringIcSt11char_traitsIcESaIcEEESaIS5_EE5clearEv.exit: ; preds = %_ZNSt10unique_ptrI23cmCursesLongMessageFormSt14default_deleteIS0_EE5resetEPS0_.exit, %_ZSt8_DestroyIPNSt7__cxx1112basic_stringIcSt11char_traitsIcESaIcEEES5_EvT_S7_RSaIT0_E.exit.i.i
  %12 = getelementptr inbounds i8, ptr %0, i64 72
  store i8 0, ptr %12, align 8
  %13 = getelementptr inbounds i8, ptr %0, i64 80
  tail call void @_ZNSt7__cxx1112basic_stringIcSt11char_traitsIcESaIcEE5clearEv(ptr noundef nonnull align 8 dereferenceable(32) %13) #19
  ret void
}